target datalayout = "e-m:e-p270:32:32-p271:32:32-p272:64:64-i64:64-i128:128-f80:128-n8:16:32:64-S128"
target triple = "x86_64-unknown-linux-gnu"

%struct.Memdev = type { ptr, i64, i8, i8, i8, i8, i8, i8, ptr, i32 }
%struct.QObject = type { %struct.QObjectBase_ }
%struct.QObjectBase_ = type { i32, i64 }
%struct.MemdevList = type { ptr, ptr }

@error_abort = external global ptr, align 8
@.str.16 = private unnamed_addr constant [15 x i8] c"memory-backend\00", align 1
@.str.17 = private unnamed_addr constant [5 x i8] c"size\00", align 1
@.str.18 = private unnamed_addr constant [6 x i8] c"merge\00", align 1
@.str.19 = private unnamed_addr constant [5 x i8] c"dump\00", align 1
@.str.20 = private unnamed_addr constant [9 x i8] c"prealloc\00", align 1
@.str.21 = private unnamed_addr constant [6 x i8] c"share\00", align 1
@.str.22 = private unnamed_addr constant [8 x i8] c"reserve\00", align 1
@.str.23 = private unnamed_addr constant [7 x i8] c"policy\00", align 1
@.str.24 = private unnamed_addr constant [14 x i8] c"HostMemPolicy\00", align 1
@.str.25 = private unnamed_addr constant [11 x i8] c"host-nodes\00", align 1
@.str.26 = private unnamed_addr constant [25 x i8] c"!obj || obj->base.refcnt\00", align 1
@.str.27 = private unnamed_addr constant [105 x i8] c"/home/dtcxzyw/WorkSpace/Projects/compilers/llvm-opt-benchmark/bench/qemu/qemu/include/qapi/qmp/qobject.h\00", align 1
@__PRETTY_FUNCTION__.qobject_unref_impl = private unnamed_addr constant [35 x i8] c"void qobject_unref_impl(QObject *)\00", align 1

; Function Attrs: nounwind sspstrong uwtable
define internal void @qobject_unref_impl(ptr noundef %obj) #0 {
entry:
  %obj.addr = alloca ptr, align 8
  store ptr %obj, ptr %obj.addr, align 8
  %0 = load ptr, ptr %obj.addr, align 8
  %tobool = icmp ne ptr %0, null
  br i1 %tobool, label %lor.lhs.false, label %if.then

lor.lhs.false:                                    ; preds = %entry
  %1 = load ptr, ptr %obj.addr, align 8
  %base = getelementptr inbounds %struct.QObject, ptr %1, i32 0, i32 0
  %refcnt = getelementptr inbounds %struct.QObjectBase_, ptr %base, i32 0, i32 1
  %2 = load i64, ptr %refcnt, align 8
  %tobool1 = icmp ne i64 %2, 0
  br i1 %tobool1, label %if.then, label %if.else

if.then:                                          ; preds = %lor.lhs.false, %entry
  br label %if.end

if.else:                                          ; preds = %lor.lhs.false
  call void @__assert_fail(ptr noundef @.str.26, ptr noundef @.str.27, i32 noundef 97, ptr noundef @__PRETTY_FUNCTION__.qobject_unref_impl) #11
  unreachable

if.end:                                           ; preds = %if.then
  %3 = load ptr, ptr %obj.addr, align 8
  %tobool2 = icmp ne ptr %3, null
  br i1 %tobool2, label %land.lhs.true, label %if.end6

land.lhs.true:                                    ; preds = %if.end
  %4 = load ptr, ptr %obj.addr, align 8
  %base3 = getelementptr inbounds %struct.QObject, ptr %4, i32 0, i32 0
  %refcnt4 = getelementptr inbounds %struct.QObjectBase_, ptr %base3, i32 0, i32 1
  %5 = load i64, ptr %refcnt4, align 8
  %dec = add i64 %5, -1
  store i64 %dec, ptr %refcnt4, align 8
  %cmp = icmp eq i64 %dec, 0
  br i1 %cmp, label %if.then5, label %if.end6

if.then5:                                         ; preds = %land.lhs.true
  %6 = load ptr, ptr %obj.addr, align 8
  call void @qobject_destroy(ptr noundef %6)
  br label %if.end6

if.end6:                                          ; preds = %if.then5, %land.lhs.true, %if.end
  ret void
}

; Function Attrs: nounwind sspstrong uwtable
define internal i32 @query_memdev(ptr noundef %obj, ptr noundef %opaque) #0 {
entry:
  %obj.addr = alloca ptr, align 8
  %opaque.addr = alloca ptr, align 8
  %err = alloca ptr, align 8
  %list = alloca ptr, align 8
  %m = alloca ptr, align 8
  %host_nodes = alloca ptr, align 8
  %v = alloca ptr, align 8
  %_obj7 = alloca ptr, align 8
  %tmp = alloca ptr, align 8
  %__mptr = alloca ptr, align 8
  %tmp22 = alloca ptr, align 8
  %_tmp = alloca ptr, align 8
  store ptr %obj, ptr %obj.addr, align 8
  store ptr %opaque, ptr %opaque.addr, align 8
  store ptr null, ptr %err, align 8
  %0 = load ptr, ptr %opaque.addr, align 8
  store ptr %0, ptr %list, align 8
  %1 = load ptr, ptr %obj.addr, align 8
  %call = call ptr @object_dynamic_cast(ptr noundef %1, ptr noundef @.str.16)
  %tobool = icmp ne ptr %call, null
  br i1 %tobool, label %if.then, label %if.end24

if.then:                                          ; preds = %entry
  %call1 = call noalias ptr @g_malloc0(i64 noundef 40) #9
  store ptr %call1, ptr %m, align 8
  %2 = load ptr, ptr %obj.addr, align 8
  %call2 = call ptr @object_get_canonical_path_component(ptr noundef %2)
  %call3 = call noalias ptr @g_strdup(ptr noundef %call2)
  %3 = load ptr, ptr %m, align 8
  %id = getelementptr inbounds %struct.Memdev, ptr %3, i32 0, i32 0
  store ptr %call3, ptr %id, align 8
  %4 = load ptr, ptr %obj.addr, align 8
  %call4 = call i64 @object_property_get_uint(ptr noundef %4, ptr noundef @.str.17, ptr noundef @error_abort)
  %5 = load ptr, ptr %m, align 8
  %size = getelementptr inbounds %struct.Memdev, ptr %5, i32 0, i32 1
  store i64 %call4, ptr %size, align 8
  %6 = load ptr, ptr %obj.addr, align 8
  %call5 = call zeroext i1 @object_property_get_bool(ptr noundef %6, ptr noundef @.str.18, ptr noundef @error_abort)
  %7 = load ptr, ptr %m, align 8
  %merge = getelementptr inbounds %struct.Memdev, ptr %7, i32 0, i32 2
  %frombool = zext i1 %call5 to i8
  store i8 %frombool, ptr %merge, align 8
  %8 = load ptr, ptr %obj.addr, align 8
  %call6 = call zeroext i1 @object_property_get_bool(ptr noundef %8, ptr noundef @.str.19, ptr noundef @error_abort)
  %9 = load ptr, ptr %m, align 8
  %dump = getelementptr inbounds %struct.Memdev, ptr %9, i32 0, i32 3
  %frombool7 = zext i1 %call6 to i8
  store i8 %frombool7, ptr %dump, align 1
  %10 = load ptr, ptr %obj.addr, align 8
  %call8 = call zeroext i1 @object_property_get_bool(ptr noundef %10, ptr noundef @.str.20, ptr noundef @error_abort)
  %11 = load ptr, ptr %m, align 8
  %prealloc = getelementptr inbounds %struct.Memdev, ptr %11, i32 0, i32 4
  %frombool9 = zext i1 %call8 to i8
  store i8 %frombool9, ptr %prealloc, align 2
  %12 = load ptr, ptr %obj.addr, align 8
  %call10 = call zeroext i1 @object_property_get_bool(ptr noundef %12, ptr noundef @.str.21, ptr noundef @error_abort)
  %13 = load ptr, ptr %m, align 8
  %share = getelementptr inbounds %struct.Memdev, ptr %13, i32 0, i32 5
  %frombool11 = zext i1 %call10 to i8
  store i8 %frombool11, ptr %share, align 1
  %14 = load ptr, ptr %obj.addr, align 8
  %call12 = call zeroext i1 @object_property_get_bool(ptr noundef %14, ptr noundef @.str.22, ptr noundef %err)
  %15 = load ptr, ptr %m, align 8
  %reserve = getelementptr inbounds %struct.Memdev, ptr %15, i32 0, i32 7
  %frombool13 = zext i1 %call12 to i8
  store i8 %frombool13, ptr %reserve, align 1
  %16 = load ptr, ptr %err, align 8
  %tobool14 = icmp ne ptr %16, null
  br i1 %tobool14, label %if.then15, label %if.else

if.then15:                                        ; preds = %if.then
  call void @error_free_or_abort(ptr noundef %err)
  br label %if.end

if.else:                                          ; preds = %if.then
  %17 = load ptr, ptr %m, align 8
  %has_reserve = getelementptr inbounds %struct.Memdev, ptr %17, i32 0, i32 6
  store i8 1, ptr %has_reserve, align 4
  br label %if.end

if.end:                                           ; preds = %if.else, %if.then15
  %18 = load ptr, ptr %obj.addr, align 8
  %call16 = call i32 @object_property_get_enum(ptr noundef %18, ptr noundef @.str.23, ptr noundef @.str.24, ptr noundef @error_abort)
  %19 = load ptr, ptr %m, align 8
  %policy = getelementptr inbounds %struct.Memdev, ptr %19, i32 0, i32 9
  store i32 %call16, ptr %policy, align 8
  %20 = load ptr, ptr %obj.addr, align 8
  %call17 = call ptr @object_property_get_qobject(ptr noundef %20, ptr noundef @.str.25, ptr noundef @error_abort)
  store ptr %call17, ptr %host_nodes, align 8
  %21 = load ptr, ptr %host_nodes, align 8
  %call18 = call ptr @qobject_input_visitor_new(ptr noundef %21)
  store ptr %call18, ptr %v, align 8
  %22 = load ptr, ptr %v, align 8
  %23 = load ptr, ptr %m, align 8
  %host_nodes19 = getelementptr inbounds %struct.Memdev, ptr %23, i32 0, i32 8
  %call20 = call zeroext i1 @visit_type_uint16List(ptr noundef %22, ptr noundef null, ptr noundef %host_nodes19, ptr noundef @error_abort)
  %24 = load ptr, ptr %v, align 8
  call void @visit_free(ptr noundef %24)
  %25 = load ptr, ptr %host_nodes, align 8
  store ptr %25, ptr %_obj7, align 8
  %26 = load ptr, ptr %_obj7, align 8
  %tobool21 = icmp ne ptr %26, null
  br i1 %tobool21, label %cond.true, label %cond.false

cond.true:                                        ; preds = %if.end
  %27 = load ptr, ptr %_obj7, align 8
  %base = getelementptr inbounds %struct.QObject, ptr %27, i32 0, i32 0
  store ptr %base, ptr %__mptr, align 8
  %28 = load ptr, ptr %__mptr, align 8
  %add.ptr = getelementptr i8, ptr %28, i64 0
  store ptr %add.ptr, ptr %tmp22, align 8
  %29 = load ptr, ptr %tmp22, align 8
  br label %cond.end

cond.false:                                       ; preds = %if.end
  br label %cond.end

cond.end:                                         ; preds = %cond.false, %cond.true
  %cond = phi ptr [ %29, %cond.true ], [ null, %cond.false ]
  store ptr %cond, ptr %tmp, align 8
  %30 = load ptr, ptr %tmp, align 8
  call void @qobject_unref_impl(ptr noundef %30)
  br label %do.body

do.body:                                          ; preds = %cond.end
  %call23 = call noalias ptr @g_malloc(i64 noundef 16) #9
  store ptr %call23, ptr %_tmp, align 8
  %31 = load ptr, ptr %m, align 8
  %32 = load ptr, ptr %_tmp, align 8
  %value = getelementptr inbounds %struct.MemdevList, ptr %32, i32 0, i32 1
  store ptr %31, ptr %value, align 8
  %33 = load ptr, ptr %list, align 8
  %34 = load ptr, ptr %33, align 8
  %35 = load ptr, ptr %_tmp, align 8
  %next = getelementptr inbounds %struct.MemdevList, ptr %35, i32 0, i32 0
  store ptr %34, ptr %next, align 8
  %36 = load ptr, ptr %_tmp, align 8
  %37 = load ptr, ptr %list, align 8
  store ptr %36, ptr %37, align 8
  br label %do.end

do.end:                                           ; preds = %do.body
  br label %if.end24

if.end24:                                         ; preds = %do.end, %entry
  ret i32 0
}