; Function Attrs: nounwind sspstrong uwtable
define internal noundef i32 @query_memdev(ptr noundef %obj, ptr noundef captures(none) %opaque) #0 {
entry:
  %err = alloca ptr, align 8
  store ptr null, ptr %err, align 8
  %call = tail call ptr @object_dynamic_cast(ptr noundef %obj, ptr noundef nonnull @.str.16) #7
  %tobool.not = icmp eq ptr %call, null
  br i1 %tobool.not, label %if.end24, label %if.then

if.then:                                          ; preds = %entry
  %call1 = tail call noalias dereferenceable_or_null(40) ptr @g_malloc0(i64 noundef 40) #8
  %call2 = tail call ptr @object_get_canonical_path_component(ptr noundef %obj) #7
  %call3 = tail call noalias ptr @g_strdup(ptr noundef %call2) #7
  store ptr %call3, ptr %call1, align 8
  %call4 = tail call i64 @object_property_get_uint(ptr noundef %obj, ptr noundef nonnull @.str.17, ptr noundef nonnull @error_abort) #7
  %size = getelementptr inbounds nuw i8, ptr %call1, i64 8
  store i64 %call4, ptr %size, align 8
  %call5 = tail call zeroext i1 @object_property_get_bool(ptr noundef %obj, ptr noundef nonnull @.str.18, ptr noundef nonnull @error_abort) #7
  %merge = getelementptr inbounds nuw i8, ptr %call1, i64 16
  %frombool = zext i1 %call5 to i8
  store i8 %frombool, ptr %merge, align 8
  %call6 = tail call zeroext i1 @object_property_get_bool(ptr noundef %obj, ptr noundef nonnull @.str.19, ptr noundef nonnull @error_abort) #7
  %dump = getelementptr inbounds nuw i8, ptr %call1, i64 17
  %frombool7 = zext i1 %call6 to i8
  store i8 %frombool7, ptr %dump, align 1
  %call8 = tail call zeroext i1 @object_property_get_bool(ptr noundef %obj, ptr noundef nonnull @.str.20, ptr noundef nonnull @error_abort) #7
  %prealloc = getelementptr inbounds nuw i8, ptr %call1, i64 18
  %frombool9 = zext i1 %call8 to i8
  store i8 %frombool9, ptr %prealloc, align 2
  %call10 = tail call zeroext i1 @object_property_get_bool(ptr noundef %obj, ptr noundef nonnull @.str.21, ptr noundef nonnull @error_abort) #7
  %share = getelementptr inbounds nuw i8, ptr %call1, i64 19
  %frombool11 = zext i1 %call10 to i8
  store i8 %frombool11, ptr %share, align 1
  %call12 = call zeroext i1 @object_property_get_bool(ptr noundef %obj, ptr noundef nonnull @.str.22, ptr noundef nonnull %err) #7
  %reserve = getelementptr inbounds nuw i8, ptr %call1, i64 21
  %frombool13 = zext i1 %call12 to i8
  store i8 %frombool13, ptr %reserve, align 1
  %0 = load ptr, ptr %err, align 8
  %tobool14.not = icmp eq ptr %0, null
  br i1 %tobool14.not, label %if.else, label %if.then15

if.then15:                                        ; preds = %if.then
  call void @error_free_or_abort(ptr noundef nonnull %err) #7
  br label %if.end

if.else:                                          ; preds = %if.then
  %has_reserve = getelementptr inbounds nuw i8, ptr %call1, i64 20
  store i8 1, ptr %has_reserve, align 4
  br label %if.end

if.end:                                           ; preds = %if.else, %if.then15
  %call16 = call i32 @object_property_get_enum(ptr noundef %obj, ptr noundef nonnull @.str.23, ptr noundef nonnull @.str.24, ptr noundef nonnull @error_abort) #7
  %policy = getelementptr inbounds nuw i8, ptr %call1, i64 32
  store i32 %call16, ptr %policy, align 8
  %call17 = call ptr @object_property_get_qobject(ptr noundef %obj, ptr noundef nonnull @.str.25, ptr noundef nonnull @error_abort) #7
  %call18 = call ptr @qobject_input_visitor_new(ptr noundef %call17) #7
  %host_nodes19 = getelementptr inbounds nuw i8, ptr %call1, i64 24
  %call20 = call zeroext i1 @visit_type_uint16List(ptr noundef %call18, ptr noundef null, ptr noundef nonnull %host_nodes19, ptr noundef nonnull @error_abort) #7
  call void @visit_free(ptr noundef %call18) #7
  %tobool21.not = icmp eq ptr %call17, null
  br i1 %tobool21.not, label %qobject_unref_impl.exit, label %lor.lhs.false.i

lor.lhs.false.i:                                  ; preds = %if.end
  %refcnt.i = getelementptr inbounds nuw i8, ptr %call17, i64 8
  %1 = load i64, ptr %refcnt.i, align 8
  %tobool1.not.i = icmp eq i64 %1, 0
  br i1 %tobool1.not.i, label %if.else.i, label %land.lhs.true.i

if.else.i:                                        ; preds = %lor.lhs.false.i
  call void @__assert_fail(ptr noundef nonnull @.str.26, ptr noundef nonnull @.str.27, i32 noundef 97, ptr noundef nonnull @__PRETTY_FUNCTION__.qobject_unref_impl) #9
  unreachable

land.lhs.true.i:                                  ; preds = %lor.lhs.false.i
  %dec.i = add i64 %1, -1
  store i64 %dec.i, ptr %refcnt.i, align 8
  %cmp.i = icmp eq i64 %dec.i, 0
  br i1 %cmp.i, label %if.then5.i, label %qobject_unref_impl.exit

if.then5.i:                                       ; preds = %land.lhs.true.i
  call void @qobject_destroy(ptr noundef nonnull %call17) #7
  br label %qobject_unref_impl.exit

qobject_unref_impl.exit:                          ; preds = %if.end, %land.lhs.true.i, %if.then5.i
  %call23 = call noalias dereferenceable_or_null(16) ptr @g_malloc(i64 noundef 16) #8
  %value = getelementptr inbounds nuw i8, ptr %call23, i64 8
  store ptr %call1, ptr %value, align 8
  %2 = load ptr, ptr %opaque, align 8
  store ptr %2, ptr %call23, align 8
  store ptr %call23, ptr %opaque, align 8
  br label %if.end24

if.end24:                                         ; preds = %qobject_unref_impl.exit, %entry
  ret i32 0
}